target datalayout = "e-m:e-p270:32:32-p271:32:32-p272:64:64-i64:64-i128:128-f80:128-n8:16:32:64-S128"
target triple = "x86_64-pc-linux-gnu"

%struct.Abc_Frame_t_ = type { ptr, ptr, ptr, ptr, ptr, ptr, ptr, ptr, ptr, ptr, i32, i32, i32, i32, i32, ptr, float, float, i32, i32, ptr, ptr, ptr, double, double, ptr, ptr, ptr, ptr, ptr, ptr, ptr, ptr, ptr, ptr, ptr, ptr, float, ptr, i32, ptr, ptr, ptr, ptr, ptr, i32, i32, i32, i32, i32, i32, ptr, ptr, ptr, ptr, ptr, ptr, i32, i32, ptr, ptr, ptr, ptr, ptr, ptr, ptr, ptr, ptr, ptr, ptr, ptr, ptr, ptr, ptr, ptr, ptr, ptr, ptr, ptr, ptr, ptr, ptr, ptr, ptr, ptr, ptr, ptr, ptr, ptr }

@.str.65 = private unnamed_addr constant [2 x i8] c"h\00", align 1
@.str.66 = private unnamed_addr constant [19 x i8] c"usage: abcrc [-h]\0A\00", align 1
@.str.67 = private unnamed_addr constant [71 x i8] c"   -h  sources \22abc.rc\22 from the current/parent/grandparent directory\0A\00", align 1

; Function Attrs: nounwind uwtable
define internal i32 @CmdCommandAbcrc(ptr noundef %0, i32 noundef %1, ptr noundef %2) #0 {
  %4 = alloca i32, align 4
  %5 = alloca ptr, align 8
  %6 = alloca i32, align 4
  %7 = alloca ptr, align 8
  %8 = alloca i32, align 4
  store ptr %0, ptr %5, align 8
  store i32 %1, ptr %6, align 4
  store ptr %2, ptr %7, align 8
  call void (...) @Extra_UtilGetoptReset()
  br label %9

9:                                                ; preds = %3
  %10 = load i32, ptr %6, align 4
  %11 = load ptr, ptr %7, align 8
  %12 = call i32 @Extra_UtilGetopt(i32 noundef %10, ptr noundef %11, ptr noundef @.str.65)
  store i32 %12, ptr %8, align 4
  %13 = icmp ne i32 %12, -1
  br i1 %13, label %14, label %18

14:                                               ; preds = %9
  %15 = load i32, ptr %8, align 4
  switch i32 %15, label %17 [
    i32 104, label %16
  ]

16:                                               ; preds = %14
  br label %20

17:                                               ; preds = %14
  br label %20

18:                                               ; preds = %9
  %19 = load ptr, ptr %5, align 8
  call void @Abc_UtilsSource(ptr noundef %19)
  store i32 0, ptr %4, align 4
  br label %29

20:                                               ; preds = %17, %16
  %21 = load ptr, ptr %5, align 8
  %22 = getelementptr inbounds %struct.Abc_Frame_t_, ptr %21, i32 0, i32 21
  %23 = load ptr, ptr %22, align 8
  %24 = call i32 (ptr, ptr, ...) @fprintf(ptr noundef %23, ptr noundef @.str.66) #9
  %25 = load ptr, ptr %5, align 8
  %26 = getelementptr inbounds %struct.Abc_Frame_t_, ptr %25, i32 0, i32 21
  %27 = load ptr, ptr %26, align 8
  %28 = call i32 (ptr, ptr, ...) @fprintf(ptr noundef %27, ptr noundef @.str.67) #9
  store i32 1, ptr %4, align 4
  br label %29

29:                                               ; preds = %20, %18
  %30 = load i32, ptr %4, align 4
  ret i32 %30
}